
bad:     file format elf64-alpha

Disassembly of section .init:

0000000120000848 <_init>:
   120000848:	11 00 bb 27 	ldah	gp,17(t12)
   12000084c:	68 83 bd 23 	lda	gp,-31896(gp)

0000000120000850 <_init..ng>:
   120000850:	f0 ff de 23 	lda	sp,-16(sp)
   120000854:	00 00 5e b7 	stq	ra,0(sp)
   120000858:	70 80 3d a4 	ldq	t0,-32656(gp)
   12000085c:	06 00 20 e4 	beq	t0,120000878 <_init..ng+0x28>
   120000860:	70 80 7d a7 	ldq	t12,-32656(gp)
   120000864:	e6 7d 5b 6b 	jsr	ra,(t12),120000000 <*ABS*+0x120000000>
   120000868:	00 00 00 60 	trapb
   12000086c:	11 00 ba 27 	ldah	gp,17(ra)
   120000870:	48 83 bd 23 	lda	gp,-31928(gp)
   120000874:	1f 04 ff 47 	nop	
   120000878:	00 00 a0 c3 	br	gp,12000087c <_init..ng+0x2c>
   12000087c:	11 00 bd 27 	ldah	gp,17(gp)
   120000880:	34 83 bd 23 	lda	gp,-31948(gp)
   120000884:	98 80 7d a7 	ldq	t12,-32616(gp)
   120000888:	7d 40 5b 6b 	jsr	ra,(t12),120000a80 <__do_global_ctors_aux>
   12000088c:	1f 04 ff 47 	nop	
   120000890:	00 00 5e a7 	ldq	ra,0(sp)
   120000894:	1e 14 c2 43 	addq	sp,0x10,sp
   120000898:	01 80 fa 6b 	ret	zero,(ra),0x1
Disassembly of section .text:

00000001200008a0 <_start>:
   1200008a0:	0f 04 ff 47 	clr	fp
   1200008a4:	00 00 a0 c3 	br	gp,1200008a8 <_start+0x8>
   1200008a8:	11 00 bd 27 	ldah	gp,17(gp)
   1200008ac:	08 83 bd 23 	lda	gp,-31992(gp)
   1200008b0:	09 04 e0 47 	mov	v0,s0
   1200008b4:	20 80 7d a7 	ldq	t12,-32736(gp)
   1200008b8:	ad 40 5b 6b 	jsr	ra,(t12),120000b70 <_fini..ng+0xb0>
   1200008bc:	11 00 ba 27 	ldah	gp,17(ra)
   1200008c0:	f4 82 bd 23 	lda	gp,-32012(gp)
   1200008c4:	05 00 20 e5 	beq	s0,1200008dc <_start+0x3c>
   1200008c8:	10 04 e9 47 	mov	s0,a0
   1200008cc:	40 80 7d a7 	ldq	t12,-32704(gp)
   1200008d0:	ad 40 5b 6b 	jsr	ra,(t12),120000b88 <_fini..ng+0xc8>
   1200008d4:	11 00 ba 27 	ldah	gp,17(ra)
   1200008d8:	dc 82 bd 23 	lda	gp,-32036(gp)
   1200008dc:	00 00 1e a2 	ldl	a0,0(sp)
   1200008e0:	08 00 3e 22 	lda	a1,8(sp)
   1200008e4:	52 06 11 42 	s8addq	a0,a1,a2
   1200008e8:	12 14 41 42 	addq	a2,0x8,a2
   1200008ec:	08 80 9d a7 	ldq	at,-32760(gp)
   1200008f0:	00 00 5c b6 	stq	a2,0(at)
   1200008f4:	09 04 f0 47 	mov	a0,s0
   1200008f8:	0a 04 f1 47 	mov	a1,s1
   1200008fc:	0b 04 f2 47 	mov	a2,s2
   120000900:	10 80 7d a7 	ldq	t12,-32752(gp)
   120000904:	d0 7f 5b 6b 	jsr	ra,(t12),120000848 <_init>
   120000908:	11 00 ba 27 	ldah	gp,17(ra)
   12000090c:	a8 82 bd 23 	lda	gp,-32088(gp)
   120000910:	38 80 1d a6 	ldq	a0,-32712(gp)
   120000914:	40 80 7d a7 	ldq	t12,-32704(gp)
   120000918:	9b 40 5b 6b 	jsr	ra,(t12),120000b88 <_fini..ng+0xc8>
   12000091c:	11 00 ba 27 	ldah	gp,17(ra)
   120000920:	94 82 bd 23 	lda	gp,-32108(gp)
   120000924:	10 04 e9 47 	mov	s0,a0
   120000928:	11 04 ea 47 	mov	s1,a1
   12000092c:	12 04 eb 47 	mov	s2,a2
   120000930:	28 80 7d a7 	ldq	t12,-32728(gp)
   120000934:	16 40 5b 6b 	jsr	ra,(t12),120000990 <main>
   120000938:	11 00 ba 27 	ldah	gp,17(ra)
   12000093c:	78 82 bd 23 	lda	gp,-32136(gp)
   120000940:	10 04 e0 47 	mov	v0,a0
   120000944:	48 80 7d a7 	ldq	t12,-32696(gp)
   120000948:	92 40 5b 6b 	jsr	ra,(t12),120000b94 <_fini..ng+0xd4>
   12000094c:	00 00 00 00 	halt

0000000120000950 <__do_global_dtors_aux>:
   120000950:	f0 ff de 23 	lda	sp,-16(sp)
   120000954:	08 00 3e b5 	stq	s0,8(sp)
   120000958:	00 00 5e b7 	stq	ra,0(sp)
   12000095c:	80 80 3d a5 	ldq	s0,-32640(gp)
   120000960:	01 00 e0 c3 	br	120000968 <__do_global_dtors_aux+0x18>
   120000964:	00 40 5b 6b 	jsr	ra,(t12),120000968 <__do_global_dtors_aux+0x18>
   120000968:	08 00 69 a7 	ldq	t12,8(s0)
   12000096c:	09 14 21 41 	addq	s0,0x8,s0
   120000970:	fc ff 7f f7 	bne	t12,120000964 <__do_global_dtors_aux+0x14>
   120000974:	00 00 5e a7 	ldq	ra,0(sp)
   120000978:	08 00 3e a5 	ldq	s0,8(sp)
   12000097c:	10 00 de 23 	lda	sp,16(sp)
   120000980:	01 80 fa 6b 	ret	zero,(ra),0x1
   120000984:	00 00 00 00 	halt
   120000988:	04 1f 04 1f 	.long 0x1f041f04
   12000098c:	04 1f 04 1f 	.long 0x1f041f04

0000000120000990 <main>:
   120000990:	11 00 bb 27 	ldah	gp,17(t12)
   120000994:	20 82 bd 23 	lda	gp,-32224(gp)

0000000120000998 <main..ng>:
   120000998:	e0 ff de 23 	lda	sp,-32(sp)
   12000099c:	00 00 5e b7 	stq	ra,0(sp)
   1200009a0:	08 00 3e b5 	stq	s0,8(sp)
   1200009a4:	09 14 c2 43 	addq	sp,0x10,s0
   1200009a8:	60 80 1d a6 	ldq	a0,-32672(gp)
   1200009ac:	18 00 30 a4 	ldq	t0,24(a0)
   1200009b0:	07 00 20 e4 	beq	t0,1200009d0 <main..ng+0x38>
   1200009b4:	00 80 7d a7 	ldq	t12,-32768(gp)
   1200009b8:	67 40 5b 6b 	jsr	ra,(t12),120000b58 <_fini..ng+0x98>
   1200009bc:	11 00 ba 27 	ldah	gp,17(ra)
   1200009c0:	f4 81 bd 23 	lda	gp,-32268(gp)
   1200009c4:	06 00 e0 c3 	br	1200009e0 <main..ng+0x48>
   1200009c8:	1f 04 ff 47 	nop	
   1200009cc:	1f 04 ff 47 	nop	
   1200009d0:	10 00 30 a4 	ldq	t0,16(a0)
   1200009d4:	01 34 20 40 	addq	t0,0x1,t0
   1200009d8:	10 00 30 b4 	stq	t0,16(a0)
   1200009dc:	58 80 1d a4 	ldq	v0,-32680(gp)
   1200009e0:	00 00 09 b4 	stq	v0,0(s0)
   1200009e4:	68 80 1d a6 	ldq	a0,-32664(gp)
   1200009e8:	90 80 3d a6 	ldq	a1,-32624(gp)
   1200009ec:	18 80 7d a7 	ldq	t12,-32744(gp)
   1200009f0:	5c 40 5b 6b 	jsr	ra,(t12),120000b64 <_fini..ng+0xa4>
   1200009f4:	11 00 ba 27 	ldah	gp,17(ra)
   1200009f8:	bc 81 bd 23 	lda	gp,-32324(gp)
   1200009fc:	10 04 00 44 	mov	v0,a0
   120000a00:	11 14 c2 43 	addq	sp,0x10,a1
   120000a04:	30 80 7d a7 	ldq	t12,-32720(gp)
   120000a08:	5c 40 5b 6b 	jsr	ra,(t12),120000b7c <_fini..ng+0xbc>
   120000a0c:	11 00 ba 27 	ldah	gp,17(ra)
   120000a10:	a4 81 bd 23 	lda	gp,-32348(gp)
   120000a14:	10 04 00 44 	mov	v0,a0
   120000a18:	11 14 c2 43 	addq	sp,0x10,a1
   120000a1c:	30 80 7d a7 	ldq	t12,-32720(gp)
   120000a20:	56 40 5b 6b 	jsr	ra,(t12),120000b7c <_fini..ng+0xbc>
   120000a24:	11 00 ba 27 	ldah	gp,17(ra)
   120000a28:	8c 81 bd 23 	lda	gp,-32372(gp)
   120000a2c:	10 04 00 44 	mov	v0,a0
   120000a30:	88 80 3d a6 	ldq	a1,-32632(gp)
   120000a34:	18 80 7d a7 	ldq	t12,-32744(gp)
   120000a38:	4a 40 5b 6b 	jsr	ra,(t12),120000b64 <_fini..ng+0xa4>
   120000a3c:	11 00 ba 27 	ldah	gp,17(ra)
   120000a40:	74 81 bd 23 	lda	gp,-32396(gp)
   120000a44:	10 00 3e a4 	ldq	t0,16(sp)
   120000a48:	30 15 24 40 	subq	t0,0x20,a0
   120000a4c:	10 00 30 a4 	ldq	t0,16(a0)
   120000a50:	21 35 20 40 	subq	t0,0x1,t0
   120000a54:	10 00 30 b4 	stq	t0,16(a0)
   120000a58:	04 00 20 f4 	bne	t0,120000a6c <main..ng+0xd4>
   120000a5c:	50 80 7d a7 	ldq	t12,-32688(gp)
   120000a60:	4f 40 5b 6b 	jsr	ra,(t12),120000ba0 <_fini..ng+0xe0>
   120000a64:	11 00 ba 27 	ldah	gp,17(ra)
   120000a68:	4c 81 bd 23 	lda	gp,-32436(gp)
   120000a6c:	00 04 ff 47 	clr	v0
   120000a70:	00 00 5e a7 	ldq	ra,0(sp)
   120000a74:	08 00 3e a5 	ldq	s0,8(sp)
   120000a78:	1e 14 c4 43 	addq	sp,0x20,sp
   120000a7c:	01 80 fa 6b 	ret	zero,(ra),0x1

0000000120000a80 <__do_global_ctors_aux>:
   120000a80:	f0 ff de 23 	lda	sp,-16(sp)
   120000a84:	08 00 3e b5 	stq	s0,8(sp)
   120000a88:	00 00 5e b7 	stq	ra,0(sp)
   120000a8c:	a0 80 3d a5 	ldq	s0,-32608(gp)
   120000a90:	01 00 e0 c3 	br	120000a98 <__do_global_ctors_aux+0x18>
   120000a94:	00 40 5b 6b 	jsr	ra,(t12),120000a98 <__do_global_ctors_aux+0x18>
   120000a98:	f8 ff 69 a7 	ldq	t12,-8(s0)
   120000a9c:	29 15 21 41 	subq	s0,0x8,s0
   120000aa0:	00 05 fb 47 	not	t12,v0
   120000aa4:	fb ff 1f f4 	bne	v0,120000a94 <__do_global_ctors_aux+0x14>
   120000aa8:	00 00 5e a7 	ldq	ra,0(sp)
   120000aac:	08 00 3e a5 	ldq	s0,8(sp)
   120000ab0:	10 00 de 23 	lda	sp,16(sp)
   120000ab4:	01 80 fa 6b 	ret	zero,(ra),0x1
Disassembly of section .fini:

0000000120000ab8 <_fini>:
   120000ab8:	11 00 bb 27 	ldah	gp,17(t12)
   120000abc:	f8 80 bd 23 	lda	gp,-32520(gp)

0000000120000ac0 <_fini..ng>:
   120000ac0:	f0 ff de 23 	lda	sp,-16(sp)
   120000ac4:	00 00 5e b7 	stq	ra,0(sp)
   120000ac8:	00 00 a0 c3 	br	gp,120000acc <_fini..ng+0xc>
   120000acc:	11 00 bd 27 	ldah	gp,17(gp)
   120000ad0:	e4 80 bd 23 	lda	gp,-32540(gp)
   120000ad4:	78 80 7d a7 	ldq	t12,-32648(gp)
   120000ad8:	9d 7f 5b 6b 	jsr	ra,(t12),120000950 <__do_global_dtors_aux>
   120000adc:	1f 04 ff 47 	nop	
   120000ae0:	00 00 5e a7 	ldq	ra,0(sp)
   120000ae4:	1e 14 c2 43 	addq	sp,0x10,sp
   120000ae8:	01 80 fa 6b 	ret	zero,(ra),0x1
Disassembly of section .plt:

0000000120100b38 <.plt>:
   120100b38:	00 00 60 c3 	br	t12,120100b3c <_PROCEDURE_LINKAGE_TABLE_+0x4>
   120100b3c:	0c 00 7b a7 	ldq	t12,12(t12)
   120100b40:	1f 04 ff 47 	nop	
   120100b44:	00 00 7b 6b 	jmp	t12,(t12),120100b48 <_PROCEDURE_LINKAGE_TABLE_+0x10>
	...
   120100b58:	f7 ff 9f c3 	br	at,120100b38 <_PROCEDURE_LINKAGE_TABLE_>
	...
   120100b64:	f4 ff 9f c3 	br	at,120100b38 <_PROCEDURE_LINKAGE_TABLE_>
	...
   120100b70:	f1 ff 9f c3 	br	at,120100b38 <_PROCEDURE_LINKAGE_TABLE_>
	...
   120100b7c:	ee ff 9f c3 	br	at,120100b38 <_PROCEDURE_LINKAGE_TABLE_>
	...
   120100b88:	eb ff 9f c3 	br	at,120100b38 <_PROCEDURE_LINKAGE_TABLE_>
	...
   120100b94:	e8 ff 9f c3 	br	at,120100b38 <_PROCEDURE_LINKAGE_TABLE_>
	...
   120100ba0:	e5 ff 9f c3 	br	at,120100b38 <_PROCEDURE_LINKAGE_TABLE_>
	...
